target datalayout = "e-m:e-p270:32:32-p271:32:32-p272:64:64-i64:64-i128:128-f80:128-n8:16:32:64-S128"
target triple = "x86_64-pc-linux-gnu"

%"class.clang::Stmt" = type { %union.anon }
%union.anon = type { %"class.clang::Stmt::PseudoObjectExprBitfields" }
%"class.clang::Stmt::PseudoObjectExprBitfields" = type { i64 }
%"class.clang::Expr" = type { %"class.clang::ValueStmt", %"class.clang::QualType" }
%"class.clang::ValueStmt" = type { %"class.clang::Stmt" }
%"class.clang::QualType" = type { %"class.llvm::PointerIntPair" }
%"class.llvm::PointerIntPair" = type { %"struct.llvm::detail::PunnedPointer" }
%"struct.llvm::detail::PunnedPointer" = type { [8 x i8] }
%"class.clang::SourceLocation" = type { i32 }
%"struct.clang::OMPIteratorHelperData" = type { ptr, ptr, ptr, ptr }
%"class.clang::OMPIteratorExpr" = type { %"class.clang::Expr", %"class.clang::SourceLocation", %"class.clang::SourceLocation", %"class.clang::SourceLocation", i32 }
%"struct.llvm::Align" = type { i8 }
%"struct.llvm::Align::LogValue" = type { i8 }

; Function Attrs: mustprogress nounwind uwtable
define linkonce_odr hidden noundef i64 @_ZN4llvm6CTLog2ILm1EEEmv() #0 comdat {
  ret i64 0
}

; Function Attrs: mustprogress nounwind uwtable
define linkonce_odr hidden noundef i64 @_ZN4llvm6CTLog2ILm2EEEmv() #0 comdat {
  %1 = call noundef i64 @_ZN4llvm6CTLog2ILm1EEEmv()
  %2 = add i64 1, %1
  ret i64 %2
}

; Function Attrs: mustprogress nounwind uwtable
define linkonce_odr hidden noundef i64 @_ZN4llvm6CTLog2ILm4EEEmv() #0 comdat {
  %1 = call noundef i64 @_ZN4llvm6CTLog2ILm2EEEmv()
  %2 = add i64 1, %1
  ret i64 %2
}

; Function Attrs: mustprogress nounwind uwtable
define linkonce_odr hidden noundef i32 @_ZNK5clang15OMPIteratorExpr18numTrailingObjectsEN4llvm25trailing_objects_internal19TrailingObjectsBase13OverloadTokenIPNS_4DeclEEE(ptr noundef nonnull align 8 dereferenceable(32) %0) #0 comdat align 2 {
  %2 = alloca ptr, align 8
  store ptr %0, ptr %2, align 8
  %3 = load ptr, ptr %2, align 8
  %4 = getelementptr inbounds nuw %"class.clang::OMPIteratorExpr", ptr %3, i32 0, i32 4
  %5 = load i32, ptr %4, align 4
  ret i32 %5
}

; Function Attrs: mustprogress nounwind uwtable
define linkonce_odr hidden noundef i64 @_ZN4llvm15TrailingObjectsIN5clang15OMPIteratorExprEJPNS1_4DeclEPNS1_4ExprENS1_14SourceLocationENS1_21OMPIteratorHelperDataEEE22callNumTrailingObjectsEPKS2_NS_25trailing_objects_internal19TrailingObjectsBase13OverloadTokenIS2_EE(ptr noundef %0) #0 comdat align 2 {
  %2 = alloca ptr, align 8
  store ptr %0, ptr %2, align 8
  ret i64 1
}

; Function Attrs: mustprogress nounwind uwtable
define linkonce_odr hidden noundef ptr @_ZN4llvm15TrailingObjectsIN5clang15OMPIteratorExprEJPNS1_4DeclEPNS1_4ExprENS1_14SourceLocationENS1_21OMPIteratorHelperDataEEE22getTrailingObjectsImplEPKS2_NS_25trailing_objects_internal19TrailingObjectsBase13OverloadTokenIS2_EE(ptr noundef %0) #0 comdat align 2 {
  %2 = alloca ptr, align 8
  store ptr %0, ptr %2, align 8
  %3 = load ptr, ptr %2, align 8
  ret ptr %3
}

; Function Attrs: mustprogress nounwind uwtable
define linkonce_odr hidden noundef i64 @_ZNK4llvm5Align5valueEv(ptr noundef nonnull align 1 dereferenceable(1) %0) #0 comdat align 2 {
  %2 = alloca ptr, align 8
  store ptr %0, ptr %2, align 8
  %3 = load ptr, ptr %2, align 8
  %4 = getelementptr inbounds nuw %"struct.llvm::Align", ptr %3, i32 0, i32 0
  %5 = load i8, ptr %4, align 1
  %6 = zext i8 %5 to i32
  %7 = zext i32 %6 to i64
  %8 = shl i64 1, %7
  ret i64 %8
}

; Function Attrs: mustprogress nounwind uwtable
define linkonce_odr hidden void @_ZN4llvm5AlignC2ENS0_8LogValueE(ptr noundef nonnull align 1 dereferenceable(1) %0, i8 %1) unnamed_addr #0 comdat align 2 {
  %3 = alloca %"struct.llvm::Align::LogValue", align 1
  %4 = alloca ptr, align 8
  %5 = getelementptr inbounds nuw %"struct.llvm::Align::LogValue", ptr %3, i32 0, i32 0
  store i8 %1, ptr %5, align 1
  store ptr %0, ptr %4, align 8
  %6 = load ptr, ptr %4, align 8
  %7 = getelementptr inbounds nuw %"struct.llvm::Align", ptr %6, i32 0, i32 0
  %8 = getelementptr inbounds nuw %"struct.llvm::Align::LogValue", ptr %3, i32 0, i32 0
  %9 = load i8, ptr %8, align 1
  store i8 %9, ptr %7, align 1
  ret void
}

; Function Attrs: mustprogress nounwind uwtable
define linkonce_odr hidden noundef i64 @_ZN4llvm6CTLog2ILm8EEEmv() #0 comdat {
  %1 = call noundef i64 @_ZN4llvm6CTLog2ILm4EEEmv()
  %2 = add i64 1, %1
  ret i64 %2
}

; Function Attrs: mustprogress nounwind uwtable
define linkonce_odr hidden noundef i32 @_ZNK5clang15OMPIteratorExpr18numTrailingObjectsEN4llvm25trailing_objects_internal19TrailingObjectsBase13OverloadTokenIPNS_4ExprEEE(ptr noundef nonnull align 8 dereferenceable(32) %0) #0 comdat align 2 {
  %2 = alloca ptr, align 8
  store ptr %0, ptr %2, align 8
  %3 = load ptr, ptr %2, align 8
  %4 = getelementptr inbounds nuw %"class.clang::OMPIteratorExpr", ptr %3, i32 0, i32 4
  %5 = load i32, ptr %4, align 4
  %6 = mul i32 %5, 3
  ret i32 %6
}

; Function Attrs: mustprogress nounwind uwtable
define linkonce_odr hidden noundef i64 @_ZN4llvm15TrailingObjectsIN5clang15OMPIteratorExprEJPNS1_4DeclEPNS1_4ExprENS1_14SourceLocationENS1_21OMPIteratorHelperDataEEE22callNumTrailingObjectsIS4_EEmPKS2_NS_25trailing_objects_internal19TrailingObjectsBase13OverloadTokenIT_EE(ptr noundef %0) #0 comdat align 2 {
  %2 = alloca ptr, align 8
  store ptr %0, ptr %2, align 8
  %3 = load ptr, ptr %2, align 8
  %4 = call noundef i32 @_ZNK5clang15OMPIteratorExpr18numTrailingObjectsEN4llvm25trailing_objects_internal19TrailingObjectsBase13OverloadTokenIPNS_4DeclEEE(ptr noundef nonnull align 8 dereferenceable(32) %3)
  %5 = zext i32 %4 to i64
  ret i64 %5
}

; Function Attrs: mustprogress nounwind uwtable
define linkonce_odr hidden noundef ptr @_ZN4llvm25trailing_objects_internal19TrailingObjectsImplILi8EN5clang15OMPIteratorExprENS_15TrailingObjectsIS3_JPNS2_4DeclEPNS2_4ExprENS2_14SourceLocationENS2_21OMPIteratorHelperDataEEEES3_JS6_S8_S9_SA_EE22getTrailingObjectsImplEPKS3_NS0_19TrailingObjectsBase13OverloadTokenIS6_EE(ptr noundef %0) #0 comdat align 2 {
  %2 = alloca ptr, align 8
  %3 = alloca ptr, align 8
  store ptr %0, ptr %2, align 8
  %4 = load ptr, ptr %2, align 8
  %5 = call noundef ptr @_ZN4llvm15TrailingObjectsIN5clang15OMPIteratorExprEJPNS1_4DeclEPNS1_4ExprENS1_14SourceLocationENS1_21OMPIteratorHelperDataEEE22getTrailingObjectsImplEPKS2_NS_25trailing_objects_internal19TrailingObjectsBase13OverloadTokenIS2_EE(ptr noundef %4)
  %6 = load ptr, ptr %2, align 8
  %7 = call noundef i64 @_ZN4llvm15TrailingObjectsIN5clang15OMPIteratorExprEJPNS1_4DeclEPNS1_4ExprENS1_14SourceLocationENS1_21OMPIteratorHelperDataEEE22callNumTrailingObjectsEPKS2_NS_25trailing_objects_internal19TrailingObjectsBase13OverloadTokenIS2_EE(ptr noundef %6)
  %8 = getelementptr inbounds %"class.clang::OMPIteratorExpr", ptr %5, i64 %7
  store ptr %8, ptr %3, align 8
  %9 = load ptr, ptr %3, align 8
  ret ptr %9
}

; Function Attrs: mustprogress nounwind uwtable
define linkonce_odr hidden noundef i64 @_ZN4llvm7alignToEmNS_5AlignE(i64 noundef %0, i8 %1) #0 comdat {
  %3 = alloca %"struct.llvm::Align", align 1
  %4 = alloca i64, align 8
  %5 = alloca i64, align 8
  %6 = getelementptr inbounds nuw %"struct.llvm::Align", ptr %3, i32 0, i32 0
  store i8 %1, ptr %6, align 1
  store i64 %0, ptr %4, align 8
  %7 = call noundef i64 @_ZNK4llvm5Align5valueEv(ptr noundef nonnull align 1 dereferenceable(1) %3)
  store i64 %7, ptr %5, align 8
  %8 = load i64, ptr %4, align 8
  %9 = load i64, ptr %5, align 8
  %10 = add i64 %8, %9
  %11 = sub i64 %10, 1
  %12 = load i64, ptr %5, align 8
  %13 = sub i64 %12, 1
  %14 = xor i64 %13, -1
  %15 = and i64 %11, %14
  ret i64 %15
}

; Function Attrs: mustprogress nounwind uwtable
define linkonce_odr hidden i8 @_ZN4llvm5Align8ConstantILm8EEES0_v() #0 comdat align 2 {
  %1 = alloca %"struct.llvm::Align", align 1
  %2 = alloca %"struct.llvm::Align::LogValue", align 1
  %3 = getelementptr inbounds nuw %"struct.llvm::Align::LogValue", ptr %2, i32 0, i32 0
  %4 = call noundef i64 @_ZN4llvm6CTLog2ILm8EEEmv()
  %5 = trunc i64 %4 to i8
  store i8 %5, ptr %3, align 1
  %6 = getelementptr inbounds nuw %"struct.llvm::Align::LogValue", ptr %2, i32 0, i32 0
  %7 = load i8, ptr %6, align 1
  call void @_ZN4llvm5AlignC2ENS0_8LogValueE(ptr noundef nonnull align 1 dereferenceable(1) %1, i8 %7)
  %8 = getelementptr inbounds nuw %"struct.llvm::Align", ptr %1, i32 0, i32 0
  %9 = load i8, ptr %8, align 1
  ret i8 %9
}

; Function Attrs: mustprogress nounwind uwtable
define linkonce_odr hidden noundef i32 @_ZNK5clang15OMPIteratorExpr18numTrailingObjectsEN4llvm25trailing_objects_internal19TrailingObjectsBase13OverloadTokenINS_14SourceLocationEEE(ptr noundef nonnull align 8 dereferenceable(32) %0) #0 comdat align 2 {
  %2 = alloca ptr, align 8
  store ptr %0, ptr %2, align 8
  %3 = load ptr, ptr %2, align 8
  %4 = getelementptr inbounds nuw %"class.clang::OMPIteratorExpr", ptr %3, i32 0, i32 4
  %5 = load i32, ptr %4, align 4
  %6 = mul i32 %5, 3
  ret i32 %6
}

; Function Attrs: mustprogress nounwind uwtable
define linkonce_odr hidden noundef i64 @_ZN4llvm15TrailingObjectsIN5clang15OMPIteratorExprEJPNS1_4DeclEPNS1_4ExprENS1_14SourceLocationENS1_21OMPIteratorHelperDataEEE22callNumTrailingObjectsIS6_EEmPKS2_NS_25trailing_objects_internal19TrailingObjectsBase13OverloadTokenIT_EE(ptr noundef %0) #0 comdat align 2 {
  %2 = alloca ptr, align 8
  store ptr %0, ptr %2, align 8
  %3 = load ptr, ptr %2, align 8
  %4 = call noundef i32 @_ZNK5clang15OMPIteratorExpr18numTrailingObjectsEN4llvm25trailing_objects_internal19TrailingObjectsBase13OverloadTokenIPNS_4ExprEEE(ptr noundef nonnull align 8 dereferenceable(32) %3)
  %5 = zext i32 %4 to i64
  ret i64 %5
}

; Function Attrs: mustprogress nounwind uwtable
define linkonce_odr hidden noundef ptr @_ZN4llvm25trailing_objects_internal19TrailingObjectsImplILi8EN5clang15OMPIteratorExprENS_15TrailingObjectsIS3_JPNS2_4DeclEPNS2_4ExprENS2_14SourceLocationENS2_21OMPIteratorHelperDataEEEES6_JS8_S9_SA_EE22getTrailingObjectsImplEPKS3_NS0_19TrailingObjectsBase13OverloadTokenIS8_EE(ptr noundef %0) #0 comdat align 2 {
  %2 = alloca ptr, align 8
  %3 = alloca ptr, align 8
  store ptr %0, ptr %2, align 8
  %4 = load ptr, ptr %2, align 8
  %5 = call noundef ptr @_ZN4llvm25trailing_objects_internal19TrailingObjectsImplILi8EN5clang15OMPIteratorExprENS_15TrailingObjectsIS3_JPNS2_4DeclEPNS2_4ExprENS2_14SourceLocationENS2_21OMPIteratorHelperDataEEEES3_JS6_S8_S9_SA_EE22getTrailingObjectsImplEPKS3_NS0_19TrailingObjectsBase13OverloadTokenIS6_EE(ptr noundef %4)
  %6 = load ptr, ptr %2, align 8
  %7 = call noundef i64 @_ZN4llvm15TrailingObjectsIN5clang15OMPIteratorExprEJPNS1_4DeclEPNS1_4ExprENS1_14SourceLocationENS1_21OMPIteratorHelperDataEEE22callNumTrailingObjectsIS4_EEmPKS2_NS_25trailing_objects_internal19TrailingObjectsBase13OverloadTokenIT_EE(ptr noundef %6)
  %8 = getelementptr inbounds ptr, ptr %5, i64 %7
  store ptr %8, ptr %3, align 8
  %9 = load ptr, ptr %3, align 8
  ret ptr %9
}

; Function Attrs: mustprogress nounwind uwtable
define linkonce_odr hidden noundef i64 @_ZN4llvm9alignAddrEPKvNS_5AlignE(ptr noundef %0, i8 %1) #0 comdat {
  %3 = alloca %"struct.llvm::Align", align 1
  %4 = alloca ptr, align 8
  %5 = alloca i64, align 8
  %6 = alloca %"struct.llvm::Align", align 1
  %7 = getelementptr inbounds nuw %"struct.llvm::Align", ptr %3, i32 0, i32 0
  store i8 %1, ptr %7, align 1
  store ptr %0, ptr %4, align 8
  %8 = load ptr, ptr %4, align 8
  %9 = ptrtoint ptr %8 to i64
  store i64 %9, ptr %5, align 8
  %10 = load i64, ptr %5, align 8
  call void @llvm.memcpy.p0.p0.i64(ptr align 1 %6, ptr align 1 %3, i64 1, i1 false)
  %11 = getelementptr inbounds nuw %"struct.llvm::Align", ptr %6, i32 0, i32 0
  %12 = load i8, ptr %11, align 1
  %13 = call noundef i64 @_ZN4llvm7alignToEmNS_5AlignE(i64 noundef %10, i8 %12)
  ret i64 %13
}

; Function Attrs: mustprogress nounwind uwtable
define linkonce_odr hidden i8 @_ZN4llvm5Align2OfIN5clang21OMPIteratorHelperDataEEES0_v() #0 comdat align 2 {
  %1 = alloca %"struct.llvm::Align", align 1
  %2 = call i8 @_ZN4llvm5Align8ConstantILm8EEES0_v()
  %3 = getelementptr inbounds nuw %"struct.llvm::Align", ptr %1, i32 0, i32 0
  store i8 %2, ptr %3, align 1
  %4 = getelementptr inbounds nuw %"struct.llvm::Align", ptr %1, i32 0, i32 0
  %5 = load i8, ptr %4, align 1
  ret i8 %5
}

; Function Attrs: mustprogress nounwind uwtable
define linkonce_odr hidden noundef i64 @_ZN4llvm15TrailingObjectsIN5clang15OMPIteratorExprEJPNS1_4DeclEPNS1_4ExprENS1_14SourceLocationENS1_21OMPIteratorHelperDataEEE22callNumTrailingObjectsIS7_EEmPKS2_NS_25trailing_objects_internal19TrailingObjectsBase13OverloadTokenIT_EE(ptr noundef %0) #0 comdat align 2 {
  %2 = alloca ptr, align 8
  store ptr %0, ptr %2, align 8
  %3 = load ptr, ptr %2, align 8
  %4 = call noundef i32 @_ZNK5clang15OMPIteratorExpr18numTrailingObjectsEN4llvm25trailing_objects_internal19TrailingObjectsBase13OverloadTokenINS_14SourceLocationEEE(ptr noundef nonnull align 8 dereferenceable(32) %3)
  %5 = zext i32 %4 to i64
  ret i64 %5
}

; Function Attrs: mustprogress nounwind uwtable
define linkonce_odr hidden noundef ptr @_ZN4llvm25trailing_objects_internal19TrailingObjectsImplILi8EN5clang15OMPIteratorExprENS_15TrailingObjectsIS3_JPNS2_4DeclEPNS2_4ExprENS2_14SourceLocationENS2_21OMPIteratorHelperDataEEEES8_JS9_SA_EE22getTrailingObjectsImplEPKS3_NS0_19TrailingObjectsBase13OverloadTokenIS9_EE(ptr noundef %0) #0 comdat align 2 {
  %2 = alloca ptr, align 8
  %3 = alloca ptr, align 8
  store ptr %0, ptr %2, align 8
  %4 = load ptr, ptr %2, align 8
  %5 = call noundef ptr @_ZN4llvm25trailing_objects_internal19TrailingObjectsImplILi8EN5clang15OMPIteratorExprENS_15TrailingObjectsIS3_JPNS2_4DeclEPNS2_4ExprENS2_14SourceLocationENS2_21OMPIteratorHelperDataEEEES6_JS8_S9_SA_EE22getTrailingObjectsImplEPKS3_NS0_19TrailingObjectsBase13OverloadTokenIS8_EE(ptr noundef %4)
  %6 = load ptr, ptr %2, align 8
  %7 = call noundef i64 @_ZN4llvm15TrailingObjectsIN5clang15OMPIteratorExprEJPNS1_4DeclEPNS1_4ExprENS1_14SourceLocationENS1_21OMPIteratorHelperDataEEE22callNumTrailingObjectsIS6_EEmPKS2_NS_25trailing_objects_internal19TrailingObjectsBase13OverloadTokenIT_EE(ptr noundef %6)
  %8 = getelementptr inbounds ptr, ptr %5, i64 %7
  store ptr %8, ptr %3, align 8
  %9 = load ptr, ptr %3, align 8
  ret ptr %9
}

; Function Attrs: mustprogress nounwind uwtable
define linkonce_odr hidden noundef ptr @_ZN4llvm25trailing_objects_internal19TrailingObjectsImplILi8EN5clang15OMPIteratorExprENS_15TrailingObjectsIS3_JPNS2_4DeclEPNS2_4ExprENS2_14SourceLocationENS2_21OMPIteratorHelperDataEEEES9_JSA_EE22getTrailingObjectsImplEPKS3_NS0_19TrailingObjectsBase13OverloadTokenISA_EE(ptr noundef %0) #0 comdat align 2 {
  %2 = alloca ptr, align 8
  %3 = alloca ptr, align 8
  %4 = alloca %"struct.llvm::Align", align 1
  store ptr %0, ptr %2, align 8
  %5 = load ptr, ptr %2, align 8
  %6 = call noundef ptr @_ZN4llvm25trailing_objects_internal19TrailingObjectsImplILi8EN5clang15OMPIteratorExprENS_15TrailingObjectsIS3_JPNS2_4DeclEPNS2_4ExprENS2_14SourceLocationENS2_21OMPIteratorHelperDataEEEES8_JS9_SA_EE22getTrailingObjectsImplEPKS3_NS0_19TrailingObjectsBase13OverloadTokenIS9_EE(ptr noundef %5)
  %7 = load ptr, ptr %2, align 8
  %8 = call noundef i64 @_ZN4llvm15TrailingObjectsIN5clang15OMPIteratorExprEJPNS1_4DeclEPNS1_4ExprENS1_14SourceLocationENS1_21OMPIteratorHelperDataEEE22callNumTrailingObjectsIS7_EEmPKS2_NS_25trailing_objects_internal19TrailingObjectsBase13OverloadTokenIT_EE(ptr noundef %7)
  %9 = getelementptr inbounds %"class.clang::SourceLocation", ptr %6, i64 %8
  store ptr %9, ptr %3, align 8
  %10 = load ptr, ptr %3, align 8
  %11 = call i8 @_ZN4llvm5Align2OfIN5clang21OMPIteratorHelperDataEEES0_v()
  %12 = getelementptr inbounds nuw %"struct.llvm::Align", ptr %4, i32 0, i32 0
  store i8 %11, ptr %12, align 1
  %13 = getelementptr inbounds nuw %"struct.llvm::Align", ptr %4, i32 0, i32 0
  %14 = load i8, ptr %13, align 1
  %15 = call noundef i64 @_ZN4llvm9alignAddrEPKvNS_5AlignE(ptr noundef %10, i8 %14)
  %16 = inttoptr i64 %15 to ptr
  ret ptr %16
}

; Function Attrs: mustprogress nounwind uwtable
define linkonce_odr hidden void @_ZN4llvm15TrailingObjectsIN5clang15OMPIteratorExprEJPNS1_4DeclEPNS1_4ExprENS1_14SourceLocationENS1_21OMPIteratorHelperDataEEE31verifyTrailingObjectsAssertionsEv() #0 comdat align 2 {
  ret void
}

; Function Attrs: mustprogress nounwind uwtable
define linkonce_odr hidden noundef ptr @_ZNK4llvm15TrailingObjectsIN5clang15OMPIteratorExprEJPNS1_4DeclEPNS1_4ExprENS1_14SourceLocationENS1_21OMPIteratorHelperDataEEE18getTrailingObjectsIS8_EEPKT_v(ptr noundef nonnull align 8 dereferenceable(8) %0) #0 comdat align 2 {
  %2 = alloca ptr, align 8
  store ptr %0, ptr %2, align 8
  %3 = load ptr, ptr %2, align 8
  call void @_ZN4llvm15TrailingObjectsIN5clang15OMPIteratorExprEJPNS1_4DeclEPNS1_4ExprENS1_14SourceLocationENS1_21OMPIteratorHelperDataEEE31verifyTrailingObjectsAssertionsEv()
  %4 = call noundef ptr @_ZN4llvm25trailing_objects_internal19TrailingObjectsImplILi8EN5clang15OMPIteratorExprENS_15TrailingObjectsIS3_JPNS2_4DeclEPNS2_4ExprENS2_14SourceLocationENS2_21OMPIteratorHelperDataEEEES9_JSA_EE22getTrailingObjectsImplEPKS3_NS0_19TrailingObjectsBase13OverloadTokenISA_EE(ptr noundef %3)
  ret ptr %4
}

; Function Attrs: mustprogress nounwind uwtable
define dso_local noundef nonnull align 8 dereferenceable(32) ptr @_ZNK5clang15OMPIteratorExpr9getHelperEj(ptr noundef nonnull align 8 dereferenceable(32) %0, i32 noundef %1) #0 align 2 {
  %3 = alloca ptr, align 8
  %4 = alloca i32, align 4
  store ptr %0, ptr %3, align 8
  store i32 %1, ptr %4, align 4
  %5 = load ptr, ptr %3, align 8
  %6 = call noundef ptr @_ZNK4llvm15TrailingObjectsIN5clang15OMPIteratorExprEJPNS1_4DeclEPNS1_4ExprENS1_14SourceLocationENS1_21OMPIteratorHelperDataEEE18getTrailingObjectsIS8_EEPKT_v(ptr noundef nonnull align 8 dereferenceable(8) %5)
  %7 = load i32, ptr %4, align 4
  %8 = zext i32 %7 to i64
  %9 = getelementptr inbounds %"struct.clang::OMPIteratorHelperData", ptr %6, i64 %8
  ret ptr %9
}