; Function Attrs: mustprogress nofree norecurse nosync nounwind willreturn memory(argmem: read) uwtable
define dso_local noundef nonnull align 8 dereferenceable(32) ptr @_ZNK5clang15OMPIteratorExpr9getHelperEj(ptr noundef nonnull align 8 dereferenceable(32) %0, i32 noundef %1) local_unnamed_addr #6 align 2 {
  %3 = getelementptr inbounds i8, ptr %0, i64 32
  %4 = getelementptr inbounds nuw i8, ptr %0, i64 28
  %5 = load i32, ptr %4, align 4
  %6 = zext i32 %5 to i64
  %7 = getelementptr inbounds ptr, ptr %3, i64 %6
  %8 = mul i32 %5, 3
  %9 = zext i32 %8 to i64
  %10 = getelementptr inbounds ptr, ptr %7, i64 %9
  %11 = getelementptr inbounds %"class.clang::SourceLocation", ptr %10, i64 %9
  %12 = ptrtoint ptr %11 to i64
  %13 = add i64 %12, 7
  %14 = and i64 %13, -8
  %15 = inttoptr i64 %14 to ptr
  %16 = zext i32 %1 to i64
  %17 = getelementptr inbounds %"struct.clang::OMPIteratorHelperData", ptr %15, i64 %16
  ret ptr %17
}